target datalayout = "e-m:e-p270:32:32-p271:32:32-p272:64:64-i64:64-i128:128-f80:128-n8:16:32:64-S128"
target triple = "x86_64-unknown-linux-gnu"

%class.b3Vector3 = type { %union.anon }
%union.anon = type { [4 x float] }
%struct.b3RigidBodyData = type { %class.b3Vector3, %class.b3Quaternion, %class.b3Vector3, %class.b3Vector3, i32, float, float, float }
%class.b3Quaternion = type { %class.b3QuadWord }
%class.b3QuadWord = type { %union.anon.45 }
%union.anon.45 = type { [4 x float] }

; Function Attrs: mustprogress nounwind uwtable
define linkonce_odr dso_local void @_ZN9b3Vector38setValueERKfS1_S1_(ptr noundef nonnull align 16 dereferenceable(16) %this, ptr noundef nonnull align 4 dereferenceable(4) %_x, ptr noundef nonnull align 4 dereferenceable(4) %_y, ptr noundef nonnull align 4 dereferenceable(4) %_z) #1 comdat align 2 {
entry:
  %this.addr = alloca ptr, align 8
  %_x.addr = alloca ptr, align 8
  %_y.addr = alloca ptr, align 8
  %_z.addr = alloca ptr, align 8
  store ptr %this, ptr %this.addr, align 8
  store ptr %_x, ptr %_x.addr, align 8
  store ptr %_y, ptr %_y.addr, align 8
  store ptr %_z, ptr %_z.addr, align 8
  %this1 = load ptr, ptr %this.addr, align 8
  %0 = load ptr, ptr %_x.addr, align 8
  %1 = load float, ptr %0, align 4
  %2 = getelementptr inbounds %class.b3Vector3, ptr %this1, i32 0, i32 0
  %arrayidx = getelementptr inbounds [4 x float], ptr %2, i64 0, i64 0
  store float %1, ptr %arrayidx, align 16
  %3 = load ptr, ptr %_y.addr, align 8
  %4 = load float, ptr %3, align 4
  %5 = getelementptr inbounds %class.b3Vector3, ptr %this1, i32 0, i32 0
  %arrayidx2 = getelementptr inbounds [4 x float], ptr %5, i64 0, i64 1
  store float %4, ptr %arrayidx2, align 4
  %6 = load ptr, ptr %_z.addr, align 8
  %7 = load float, ptr %6, align 4
  %8 = getelementptr inbounds %class.b3Vector3, ptr %this1, i32 0, i32 0
  %arrayidx3 = getelementptr inbounds [4 x float], ptr %8, i64 0, i64 2
  store float %7, ptr %arrayidx3, align 8
  %9 = getelementptr inbounds %class.b3Vector3, ptr %this1, i32 0, i32 0
  %arrayidx4 = getelementptr inbounds [4 x float], ptr %9, i64 0, i64 3
  store float 0.000000e+00, ptr %arrayidx4, align 4
  ret void
}

; Function Attrs: mustprogress nounwind uwtable
define linkonce_odr dso_local { <2 x float>, <2 x float> } @_Z13b3MakeVector3fff(float noundef %x, float noundef %y, float noundef %z) #1 comdat {
entry:
  %retval = alloca %class.b3Vector3, align 16
  %x.addr = alloca float, align 4
  %y.addr = alloca float, align 4
  %z.addr = alloca float, align 4
  store float %x, ptr %x.addr, align 4
  store float %y, ptr %y.addr, align 4
  store float %z, ptr %z.addr, align 4
  call void @_ZN9b3Vector38setValueERKfS1_S1_(ptr noundef nonnull align 16 dereferenceable(16) %retval, ptr noundef nonnull align 4 dereferenceable(4) %x.addr, ptr noundef nonnull align 4 dereferenceable(4) %y.addr, ptr noundef nonnull align 4 dereferenceable(4) %z.addr)
  %coerce.dive = getelementptr inbounds %class.b3Vector3, ptr %retval, i32 0, i32 0
  %coerce.dive1 = getelementptr inbounds %union.anon, ptr %coerce.dive, i32 0, i32 0
  %0 = load { <2 x float>, <2 x float> }, ptr %coerce.dive1, align 16
  ret { <2 x float>, <2 x float> } %0
}

; Function Attrs: mustprogress uwtable
define linkonce_odr dso_local { <2 x float>, <2 x float> } @_ZplRK9b3Vector3S1_(ptr noundef nonnull align 16 dereferenceable(16) %v1, ptr noundef nonnull align 16 dereferenceable(16) %v2) #0 comdat {
entry:
  %retval = alloca %class.b3Vector3, align 16
  %v1.addr = alloca ptr, align 8
  %v2.addr = alloca ptr, align 8
  store ptr %v1, ptr %v1.addr, align 8
  store ptr %v2, ptr %v2.addr, align 8
  %0 = load ptr, ptr %v1.addr, align 8
  %1 = getelementptr inbounds %class.b3Vector3, ptr %0, i32 0, i32 0
  %arrayidx = getelementptr inbounds [4 x float], ptr %1, i64 0, i64 0
  %2 = load float, ptr %arrayidx, align 16
  %3 = load ptr, ptr %v2.addr, align 8
  %4 = getelementptr inbounds %class.b3Vector3, ptr %3, i32 0, i32 0
  %arrayidx1 = getelementptr inbounds [4 x float], ptr %4, i64 0, i64 0
  %5 = load float, ptr %arrayidx1, align 16
  %add = fadd float %2, %5
  %6 = load ptr, ptr %v1.addr, align 8
  %7 = getelementptr inbounds %class.b3Vector3, ptr %6, i32 0, i32 0
  %arrayidx2 = getelementptr inbounds [4 x float], ptr %7, i64 0, i64 1
  %8 = load float, ptr %arrayidx2, align 4
  %9 = load ptr, ptr %v2.addr, align 8
  %10 = getelementptr inbounds %class.b3Vector3, ptr %9, i32 0, i32 0
  %arrayidx3 = getelementptr inbounds [4 x float], ptr %10, i64 0, i64 1
  %11 = load float, ptr %arrayidx3, align 4
  %add4 = fadd float %8, %11
  %12 = load ptr, ptr %v1.addr, align 8
  %13 = getelementptr inbounds %class.b3Vector3, ptr %12, i32 0, i32 0
  %arrayidx5 = getelementptr inbounds [4 x float], ptr %13, i64 0, i64 2
  %14 = load float, ptr %arrayidx5, align 8
  %15 = load ptr, ptr %v2.addr, align 8
  %16 = getelementptr inbounds %class.b3Vector3, ptr %15, i32 0, i32 0
  %arrayidx6 = getelementptr inbounds [4 x float], ptr %16, i64 0, i64 2
  %17 = load float, ptr %arrayidx6, align 8
  %add7 = fadd float %14, %17
  %call = call { <2 x float>, <2 x float> } @_Z13b3MakeVector3fff(float noundef %add, float noundef %add4, float noundef %add7)
  %coerce.dive = getelementptr inbounds %class.b3Vector3, ptr %retval, i32 0, i32 0
  %coerce.dive8 = getelementptr inbounds %union.anon, ptr %coerce.dive, i32 0, i32 0
  %18 = getelementptr inbounds { <2 x float>, <2 x float> }, ptr %coerce.dive8, i32 0, i32 0
  %19 = extractvalue { <2 x float>, <2 x float> } %call, 0
  store <2 x float> %19, ptr %18, align 16
  %20 = getelementptr inbounds { <2 x float>, <2 x float> }, ptr %coerce.dive8, i32 0, i32 1
  %21 = extractvalue { <2 x float>, <2 x float> } %call, 1
  store <2 x float> %21, ptr %20, align 8
  %coerce.dive9 = getelementptr inbounds %class.b3Vector3, ptr %retval, i32 0, i32 0
  %coerce.dive10 = getelementptr inbounds %union.anon, ptr %coerce.dive9, i32 0, i32 0
  %22 = load { <2 x float>, <2 x float> }, ptr %coerce.dive10, align 16
  ret { <2 x float>, <2 x float> } %22
}

; Function Attrs: mustprogress uwtable
define linkonce_odr dso_local { <2 x float>, <2 x float> } @_ZNK9b3Vector35crossERKS_(ptr noundef nonnull align 16 dereferenceable(16) %this, ptr noundef nonnull align 16 dereferenceable(16) %v) #0 comdat align 2 {
entry:
  %retval = alloca %class.b3Vector3, align 16
  %this.addr = alloca ptr, align 8
  %v.addr = alloca ptr, align 8
  store ptr %this, ptr %this.addr, align 8
  store ptr %v, ptr %v.addr, align 8
  %this1 = load ptr, ptr %this.addr, align 8
  %0 = getelementptr inbounds %class.b3Vector3, ptr %this1, i32 0, i32 0
  %arrayidx = getelementptr inbounds [4 x float], ptr %0, i64 0, i64 1
  %1 = load float, ptr %arrayidx, align 4
  %2 = load ptr, ptr %v.addr, align 8
  %3 = getelementptr inbounds %class.b3Vector3, ptr %2, i32 0, i32 0
  %arrayidx2 = getelementptr inbounds [4 x float], ptr %3, i64 0, i64 2
  %4 = load float, ptr %arrayidx2, align 8
  %5 = getelementptr inbounds %class.b3Vector3, ptr %this1, i32 0, i32 0
  %arrayidx3 = getelementptr inbounds [4 x float], ptr %5, i64 0, i64 2
  %6 = load float, ptr %arrayidx3, align 8
  %7 = load ptr, ptr %v.addr, align 8
  %8 = getelementptr inbounds %class.b3Vector3, ptr %7, i32 0, i32 0
  %arrayidx4 = getelementptr inbounds [4 x float], ptr %8, i64 0, i64 1
  %9 = load float, ptr %arrayidx4, align 4
  %mul5 = fmul float %6, %9
  %neg = fneg float %mul5
  %10 = call float @llvm.fmuladd.f32(float %1, float %4, float %neg)
  %11 = getelementptr inbounds %class.b3Vector3, ptr %this1, i32 0, i32 0
  %arrayidx6 = getelementptr inbounds [4 x float], ptr %11, i64 0, i64 2
  %12 = load float, ptr %arrayidx6, align 8
  %13 = load ptr, ptr %v.addr, align 8
  %14 = getelementptr inbounds %class.b3Vector3, ptr %13, i32 0, i32 0
  %arrayidx7 = getelementptr inbounds [4 x float], ptr %14, i64 0, i64 0
  %15 = load float, ptr %arrayidx7, align 16
  %16 = getelementptr inbounds %class.b3Vector3, ptr %this1, i32 0, i32 0
  %arrayidx8 = getelementptr inbounds [4 x float], ptr %16, i64 0, i64 0
  %17 = load float, ptr %arrayidx8, align 16
  %18 = load ptr, ptr %v.addr, align 8
  %19 = getelementptr inbounds %class.b3Vector3, ptr %18, i32 0, i32 0
  %arrayidx9 = getelementptr inbounds [4 x float], ptr %19, i64 0, i64 2
  %20 = load float, ptr %arrayidx9, align 8
  %mul10 = fmul float %17, %20
  %neg11 = fneg float %mul10
  %21 = call float @llvm.fmuladd.f32(float %12, float %15, float %neg11)
  %22 = getelementptr inbounds %class.b3Vector3, ptr %this1, i32 0, i32 0
  %arrayidx12 = getelementptr inbounds [4 x float], ptr %22, i64 0, i64 0
  %23 = load float, ptr %arrayidx12, align 16
  %24 = load ptr, ptr %v.addr, align 8
  %25 = getelementptr inbounds %class.b3Vector3, ptr %24, i32 0, i32 0
  %arrayidx13 = getelementptr inbounds [4 x float], ptr %25, i64 0, i64 1
  %26 = load float, ptr %arrayidx13, align 4
  %27 = getelementptr inbounds %class.b3Vector3, ptr %this1, i32 0, i32 0
  %arrayidx14 = getelementptr inbounds [4 x float], ptr %27, i64 0, i64 1
  %28 = load float, ptr %arrayidx14, align 4
  %29 = load ptr, ptr %v.addr, align 8
  %30 = getelementptr inbounds %class.b3Vector3, ptr %29, i32 0, i32 0
  %arrayidx15 = getelementptr inbounds [4 x float], ptr %30, i64 0, i64 0
  %31 = load float, ptr %arrayidx15, align 16
  %mul16 = fmul float %28, %31
  %neg17 = fneg float %mul16
  %32 = call float @llvm.fmuladd.f32(float %23, float %26, float %neg17)
  %call = call { <2 x float>, <2 x float> } @_Z13b3MakeVector3fff(float noundef %10, float noundef %21, float noundef %32)
  %coerce.dive = getelementptr inbounds %class.b3Vector3, ptr %retval, i32 0, i32 0
  %coerce.dive18 = getelementptr inbounds %union.anon, ptr %coerce.dive, i32 0, i32 0
  %33 = getelementptr inbounds { <2 x float>, <2 x float> }, ptr %coerce.dive18, i32 0, i32 0
  %34 = extractvalue { <2 x float>, <2 x float> } %call, 0
  store <2 x float> %34, ptr %33, align 16
  %35 = getelementptr inbounds { <2 x float>, <2 x float> }, ptr %coerce.dive18, i32 0, i32 1
  %36 = extractvalue { <2 x float>, <2 x float> } %call, 1
  store <2 x float> %36, ptr %35, align 8
  %coerce.dive19 = getelementptr inbounds %class.b3Vector3, ptr %retval, i32 0, i32 0
  %coerce.dive20 = getelementptr inbounds %union.anon, ptr %coerce.dive19, i32 0, i32 0
  %37 = load { <2 x float>, <2 x float> }, ptr %coerce.dive20, align 16
  ret { <2 x float>, <2 x float> } %37
}

; Function Attrs: mustprogress nounwind uwtable
define internal noundef nonnull align 16 dereferenceable(16) ptr @_ZL18getAngularVelocityP15b3RigidBodyData(ptr noundef %rb) #1 {
entry:
  %rb.addr = alloca ptr, align 8
  store ptr %rb, ptr %rb.addr, align 8
  %0 = load ptr, ptr %rb.addr, align 8
  %m_angVel = getelementptr inbounds %struct.b3RigidBodyData, ptr %0, i32 0, i32 3
  ret ptr %m_angVel
}

; Function Attrs: mustprogress nounwind uwtable
define internal noundef nonnull align 16 dereferenceable(16) ptr @_ZL17getLinearVelocityP15b3RigidBodyData(ptr noundef %rb) #1 {
entry:
  %rb.addr = alloca ptr, align 8
  store ptr %rb, ptr %rb.addr, align 8
  %0 = load ptr, ptr %rb.addr, align 8
  %m_linVel = getelementptr inbounds %struct.b3RigidBodyData, ptr %0, i32 0, i32 2
  ret ptr %m_linVel
}

; Function Attrs: mustprogress uwtable
define dso_local { <2 x float>, <2 x float> } @_Z23getVelocityInLocalPointP15b3RigidBodyDataRK9b3Vector3(ptr noundef %rb, ptr noundef nonnull align 16 dereferenceable(16) %rel_pos) #0 {
entry:
  %retval = alloca %class.b3Vector3, align 16
  %rb.addr = alloca ptr, align 8
  %rel_pos.addr = alloca ptr, align 8
  %ref.tmp = alloca %class.b3Vector3, align 16
  store ptr %rb, ptr %rb.addr, align 8
  store ptr %rel_pos, ptr %rel_pos.addr, align 8
  %0 = load ptr, ptr %rb.addr, align 8
  %call = call noundef nonnull align 16 dereferenceable(16) ptr @_ZL17getLinearVelocityP15b3RigidBodyData(ptr noundef %0)
  %1 = load ptr, ptr %rb.addr, align 8
  %call1 = call noundef nonnull align 16 dereferenceable(16) ptr @_ZL18getAngularVelocityP15b3RigidBodyData(ptr noundef %1)
  %2 = load ptr, ptr %rel_pos.addr, align 8
  %call2 = call { <2 x float>, <2 x float> } @_ZNK9b3Vector35crossERKS_(ptr noundef nonnull align 16 dereferenceable(16) %call1, ptr noundef nonnull align 16 dereferenceable(16) %2)
  %coerce.dive = getelementptr inbounds %class.b3Vector3, ptr %ref.tmp, i32 0, i32 0
  %coerce.dive3 = getelementptr inbounds %union.anon, ptr %coerce.dive, i32 0, i32 0
  %3 = getelementptr inbounds { <2 x float>, <2 x float> }, ptr %coerce.dive3, i32 0, i32 0
  %4 = extractvalue { <2 x float>, <2 x float> } %call2, 0
  store <2 x float> %4, ptr %3, align 16
  %5 = getelementptr inbounds { <2 x float>, <2 x float> }, ptr %coerce.dive3, i32 0, i32 1
  %6 = extractvalue { <2 x float>, <2 x float> } %call2, 1
  store <2 x float> %6, ptr %5, align 8
  %call4 = call { <2 x float>, <2 x float> } @_ZplRK9b3Vector3S1_(ptr noundef nonnull align 16 dereferenceable(16) %call, ptr noundef nonnull align 16 dereferenceable(16) %ref.tmp)
  %coerce.dive5 = getelementptr inbounds %class.b3Vector3, ptr %retval, i32 0, i32 0
  %coerce.dive6 = getelementptr inbounds %union.anon, ptr %coerce.dive5, i32 0, i32 0
  %7 = getelementptr inbounds { <2 x float>, <2 x float> }, ptr %coerce.dive6, i32 0, i32 0
  %8 = extractvalue { <2 x float>, <2 x float> } %call4, 0
  store <2 x float> %8, ptr %7, align 16
  %9 = getelementptr inbounds { <2 x float>, <2 x float> }, ptr %coerce.dive6, i32 0, i32 1
  %10 = extractvalue { <2 x float>, <2 x float> } %call4, 1
  store <2 x float> %10, ptr %9, align 8
  %coerce.dive7 = getelementptr inbounds %class.b3Vector3, ptr %retval, i32 0, i32 0
  %coerce.dive8 = getelementptr inbounds %union.anon, ptr %coerce.dive7, i32 0, i32 0
  %11 = load { <2 x float>, <2 x float> }, ptr %coerce.dive8, align 16
  ret { <2 x float>, <2 x float> } %11
}