; Function Attrs: mustprogress nofree norecurse nosync nounwind willreturn memory(argmem: read) uwtable
define dso_local { <2 x float>, <2 x float> } @_Z23getVelocityInLocalPointP15b3RigidBodyDataRK9b3Vector3(ptr nocapture noundef readonly %rb, ptr nocapture noundef nonnull readonly align 16 dereferenceable(16) %rel_pos) local_unnamed_addr #0 {
entry:
  %m_linVel.i = getelementptr inbounds i8, ptr %rb, i64 32
  %m_angVel.i = getelementptr inbounds i8, ptr %rb, i64 48
  %arrayidx2.i = getelementptr inbounds i8, ptr %rel_pos, i64 8
  %0 = load float, ptr %arrayidx2.i, align 8
  %arrayidx3.i = getelementptr inbounds i8, ptr %rb, i64 56
  %1 = load float, ptr %arrayidx3.i, align 8
  %2 = fneg float %1
  %3 = load float, ptr %m_linVel.i, align 16
  %arrayidx2.i2 = getelementptr inbounds i8, ptr %rb, i64 36
  %4 = load <2 x float>, ptr %rel_pos, align 16
  %5 = extractelement <2 x float> %4, i64 1
  %neg.i = fmul float %5, %2
  %6 = load <2 x float>, ptr %m_angVel.i, align 16
  %7 = extractelement <2 x float> %6, i64 1
  %8 = tail call float @llvm.fmuladd.f32(float %7, float %0, float %neg.i)
  %9 = fneg <2 x float> %6
  %10 = insertelement <2 x float> poison, float %0, i64 0
  %11 = shufflevector <2 x float> %10, <2 x float> %4, <2 x i32> <i32 0, i32 2>
  %12 = fmul <2 x float> %11, %9
  %13 = insertelement <2 x float> poison, float %1, i64 0
  %14 = shufflevector <2 x float> %13, <2 x float> %6, <2 x i32> <i32 0, i32 2>
  %15 = tail call <2 x float> @llvm.fmuladd.v2f32(<2 x float> %14, <2 x float> %4, <2 x float> %12)
  %add.i = fadd float %8, %3
  %16 = load <2 x float>, ptr %arrayidx2.i2, align 4
  %17 = fadd <2 x float> %16, %15
  %retval.sroa.0.0.vec.insert.i.i4 = insertelement <2 x float> poison, float %add.i, i64 0
  %18 = shufflevector <2 x float> %retval.sroa.0.0.vec.insert.i.i4, <2 x float> %17, <2 x i32> <i32 0, i32 2>
  %19 = shufflevector <2 x float> <float poison, float 0.000000e+00>, <2 x float> %17, <2 x i32> <i32 3, i32 1>
  %.fca.0.insert.i.i7 = insertvalue { <2 x float>, <2 x float> } poison, <2 x float> %18, 0
  %.fca.1.insert.i.i8 = insertvalue { <2 x float>, <2 x float> } %.fca.0.insert.i.i7, <2 x float> %19, 1
  ret { <2 x float>, <2 x float> } %.fca.1.insert.i.i8
}